; ModuleID = '29/600.c'
source_filename = "29/600.c"
target datalayout = "e-m:e-p270:32:32-p271:32:32-p272:64:64-i64:64-f80:128-n8:16:32:64-S128"
target triple = "x86_64-pc-linux-gnu"

@.str = private unnamed_addr constant [3 x i8] c"%d\00", align 1
@.str.1 = private unnamed_addr constant [6 x i8] c"%.3lf\00", align 1
@.str.2 = private unnamed_addr constant [2 x i8] c"\0A\00", align 1

; Function Attrs: noinline nounwind uwtable
define dso_local i32 @main() #0 {
  %1 = alloca i32, align 4
  %2 = alloca i32, align 4
  %3 = alloca i32, align 4
  %4 = alloca i32, align 4
  %5 = alloca i32, align 4
  %6 = alloca i32, align 4
  %7 = alloca double, align 8
  %8 = alloca i32, align 4
  %9 = alloca i32, align 4
  store i32 0, i32* %1, align 4
  %10 = call i32 (i8*, ...) @__isoc99_scanf(i8* getelementptr inbounds ([3 x i8], [3 x i8]* @.str, i64 0, i64 0), i32* %2)
  store double 0.000000e+00, double* %7, align 8
  store i32 0, i32* %3, align 4
  br label %11

11:                                               ; preds = %55, %0
  %12 = load i32, i32* %3, align 4
  %13 = load i32, i32* %2, align 4
  %14 = icmp slt i32 %12, %13
  br i1 %14, label %15, label %58

15:                                               ; preds = %11
  %16 = call i32 (i8*, ...) @__isoc99_scanf(i8* getelementptr inbounds ([3 x i8], [3 x i8]* @.str, i64 0, i64 0), i32* %5)
  store i32 1, i32* %8, align 4
  store i32 2, i32* %9, align 4
  store double 0.000000e+00, double* %7, align 8
  store i32 1, i32* %4, align 4
  br label %17

17:                                               ; preds = %48, %15
  %18 = load i32, i32* %4, align 4
  %19 = load i32, i32* %5, align 4
  %20 = icmp sle i32 %18, %19
  br i1 %20, label %21, label %51

21:                                               ; preds = %17
  %22 = load i32, i32* %4, align 4
  %23 = icmp eq i32 %22, 1
  br i1 %23, label %24, label %33

24:                                               ; preds = %21
  %25 = load i32, i32* %9, align 4
  %26 = sitofp i32 %25 to double
  %27 = fmul double 1.000000e+00, %26
  %28 = load i32, i32* %8, align 4
  %29 = sitofp i32 %28 to double
  %30 = fdiv double %27, %29
  %31 = load double, double* %7, align 8
  %32 = fadd double %31, %30
  store double %32, double* %7, align 8
  br label %47

33:                                               ; preds = %21
  %34 = load i32, i32* %9, align 4
  store i32 %34, i32* %6, align 4
  %35 = load i32, i32* %8, align 4
  %36 = load i32, i32* %9, align 4
  %37 = add nsw i32 %35, %36
  store i32 %37, i32* %9, align 4
  %38 = load i32, i32* %6, align 4
  store i32 %38, i32* %8, align 4
  %39 = load i32, i32* %9, align 4
  %40 = sitofp i32 %39 to double
  %41 = fmul double 1.000000e+00, %40
  %42 = load i32, i32* %8, align 4
  %43 = sitofp i32 %42 to double
  %44 = fdiv double %41, %43
  %45 = load double, double* %7, align 8
  %46 = fadd double %45, %44
  store double %46, double* %7, align 8
  br label %47

47:                                               ; preds = %33, %24
  br label %48

48:                                               ; preds = %47
  %49 = load i32, i32* %4, align 4
  %50 = add nsw i32 %49, 1
  store i32 %50, i32* %4, align 4
  br label %17

51:                                               ; preds = %17
  %52 = load double, double* %7, align 8
  %53 = call i32 (i8*, ...) @printf(i8* getelementptr inbounds ([6 x i8], [6 x i8]* @.str.1, i64 0, i64 0), double %52)
  %54 = call i32 (i8*, ...) @printf(i8* getelementptr inbounds ([2 x i8], [2 x i8]* @.str.2, i64 0, i64 0))
  br label %55

55:                                               ; preds = %51
  %56 = load i32, i32* %3, align 4
  %57 = add nsw i32 %56, 1
  store i32 %57, i32* %3, align 4
  br label %11

58:                                               ; preds = %11
  ret i32 0
}

declare dso_local i32 @__isoc99_scanf(i8*, ...) #1

declare dso_local i32 @printf(i8*, ...) #1


!llvm.module.flags = !{!0}
!llvm.ident = !{!1}

!0 = !{i32 1, !"wchar_size", i32 4}
!1 = !{!"clang version 10.0.0-4ubuntu1 "}
